target datalayout = "e-m:e-p270:32:32-p271:32:32-p272:64:64-i64:64-i128:128-f80:128-n8:16:32:64-S128"
target triple = "x86_64-pc-linux-gnu"

%struct.RBasic = type { i64, i64 }
%struct.RArray = type { %struct.RBasic, %union.anon.16 }
%union.anon.16 = type { %struct.anon.17 }
%struct.anon.17 = type { i64, %union.anon.18, ptr }
%union.anon.18 = type { i64 }
%struct.RString = type { %struct.RBasic, i64, %union.anon.19 }
%union.anon.19 = type { %struct.anon.20 }
%struct.anon.20 = type { ptr, %union.anon.21 }
%union.anon.21 = type { i64 }
%struct.anon.22 = type { [1 x i8] }

@.str = private unnamed_addr constant [10 x i8] c"../hash.c\00", align 1
@.str.9 = private unnamed_addr constant [11 x i8] c"setenv(%s)\00", align 1
@.str.10 = private unnamed_addr constant [13 x i8] c"unsetenv(%s)\00", align 1
@envtbl = internal global i64 0, align 8
@ruby_single_main_ractor = external global ptr, align 8

; Function Attrs: inlinehint nounwind sspstrong uwtable
define internal zeroext i1 @rb_multi_ractor_p() #2 {
  %1 = alloca i1, align 1
  %2 = load ptr, ptr @ruby_single_main_ractor, align 8, !tbaa !171
  %3 = icmp ne ptr %2, null
  %4 = xor i1 %3, true
  %5 = xor i1 %4, true
  %6 = zext i1 %5 to i32
  %7 = sext i32 %6 to i64
  %8 = call i64 @llvm.expect.i64(i64 %7, i64 1)
  %9 = icmp ne i64 %8, 0
  br i1 %9, label %10, label %11

10:                                               ; preds = %0
  store i1 false, ptr %1, align 1
  br label %12

11:                                               ; preds = %0
  store i1 true, ptr %1, align 1
  br label %12

12:                                               ; preds = %11, %10
  %13 = load i1, ptr %1, align 1
  ret i1 %13
}

; Function Attrs: inlinehint nounwind sspstrong willreturn memory(read) uwtable
define internal i64 @RSTRING_LEN(i64 noundef %0) #4 {
  %2 = alloca i64, align 8
  store i64 %0, ptr %2, align 8, !tbaa !7
  %3 = load i64, ptr %2, align 8, !tbaa !7
  %4 = inttoptr i64 %3 to ptr
  %5 = getelementptr inbounds nuw %struct.RString, ptr %4, i32 0, i32 1
  %6 = load i64, ptr %5, align 8, !tbaa !174
  ret i64 %6
}

; Function Attrs: inlinehint nounwind sspstrong willreturn memory(read) uwtable
define internal i64 @RB_FL_TEST_RAW(i64 noundef %0, i64 noundef %1) #4 {
  %3 = alloca i64, align 8
  %4 = alloca i64, align 8
  store i64 %0, ptr %3, align 8, !tbaa !7
  store i64 %1, ptr %4, align 8, !tbaa !7
  %5 = load i64, ptr %3, align 8, !tbaa !7
  %6 = inttoptr i64 %5 to ptr
  %7 = getelementptr inbounds nuw %struct.RBasic, ptr %6, i32 0, i32 0
  %8 = load i64, ptr %7, align 8, !tbaa !64
  %9 = load i64, ptr %4, align 8, !tbaa !7
  %10 = and i64 %8, %9
  ret i64 %10
}

; Function Attrs: inlinehint nounwind sspstrong uwtable
define internal void @rb_vm_lock_leave(ptr noundef %0, ptr noundef %1, i32 noundef %2) #2 {
  %4 = alloca ptr, align 8
  %5 = alloca ptr, align 8
  %6 = alloca i32, align 4
  store ptr %0, ptr %4, align 8, !tbaa !95
  store ptr %1, ptr %5, align 8, !tbaa !14
  store i32 %2, ptr %6, align 4, !tbaa !16
  %7 = call zeroext i1 @rb_multi_ractor_p()
  br i1 %7, label %8, label %10

8:                                                ; preds = %3
  %9 = load ptr, ptr %4, align 8, !tbaa !95
  call void @rb_vm_lock_leave_body(ptr noundef %9)
  br label %10

10:                                               ; preds = %8, %3
  ret void
}

; Function Attrs: inlinehint nounwind sspstrong uwtable
define internal void @rb_vm_lock_enter(ptr noundef %0, ptr noundef %1, i32 noundef %2) #2 {
  %4 = alloca ptr, align 8
  %5 = alloca ptr, align 8
  %6 = alloca i32, align 4
  store ptr %0, ptr %4, align 8, !tbaa !95
  store ptr %1, ptr %5, align 8, !tbaa !14
  store i32 %2, ptr %6, align 4, !tbaa !16
  %7 = call zeroext i1 @rb_multi_ractor_p()
  br i1 %7, label %8, label %10

8:                                                ; preds = %3
  %9 = load ptr, ptr %4, align 8, !tbaa !95
  call void @rb_vm_lock_enter_body(ptr noundef %9)
  br label %10

10:                                               ; preds = %8, %3
  ret void
}

; Function Attrs: inlinehint nounwind sspstrong willreturn memory(read, argmem: readwrite) uwtable
define internal void @rbimpl_rstring_getmem(ptr dead_on_unwind noalias writable sret(%struct.RString) align 8 %0, i64 noundef %1) #22 {
  %3 = alloca i64, align 8
  store i64 %1, ptr %3, align 8, !tbaa !7
  %4 = load i64, ptr %3, align 8, !tbaa !7
  %5 = call zeroext i1 @RB_FL_ANY_RAW(i64 noundef %4, i64 noundef 8192) #26
  br i1 %5, label %6, label %9

6:                                                ; preds = %2
  %7 = load i64, ptr %3, align 8, !tbaa !7
  %8 = inttoptr i64 %7 to ptr
  call void @llvm.memcpy.p0.p0.i64(ptr align 8 %0, ptr align 8 %8, i64 40, i1 false), !tbaa.struct !173
  br label %20

9:                                                ; preds = %2
  %10 = load i64, ptr %3, align 8, !tbaa !7
  %11 = call i64 @RSTRING_LEN(i64 noundef %10) #26
  %12 = getelementptr inbounds nuw %struct.RString, ptr %0, i32 0, i32 1
  store i64 %11, ptr %12, align 8, !tbaa !174
  %13 = load i64, ptr %3, align 8, !tbaa !7
  %14 = inttoptr i64 %13 to ptr
  %15 = getelementptr inbounds nuw %struct.RString, ptr %14, i32 0, i32 2
  %16 = getelementptr inbounds nuw %struct.anon.22, ptr %15, i32 0, i32 0
  %17 = getelementptr inbounds [1 x i8], ptr %16, i64 0, i64 0
  %18 = getelementptr inbounds nuw %struct.RString, ptr %0, i32 0, i32 2
  %19 = getelementptr inbounds nuw %struct.anon.20, ptr %18, i32 0, i32 0
  store ptr %17, ptr %19, align 8, !tbaa !22
  br label %20

20:                                               ; preds = %9, %6
  ret void
}

; Function Attrs: inlinehint nounwind sspstrong willreturn memory(read) uwtable
define internal ptr @rb_array_const_ptr(i64 noundef %0) #4 {
  %2 = alloca ptr, align 8
  %3 = alloca i64, align 8
  store i64 %0, ptr %3, align 8, !tbaa !7
  %4 = load i64, ptr %3, align 8, !tbaa !7
  %5 = call zeroext i1 @RB_FL_ANY_RAW(i64 noundef %4, i64 noundef 8192) #26
  br i1 %5, label %6, label %11

6:                                                ; preds = %1
  %7 = load i64, ptr %3, align 8, !tbaa !7
  %8 = inttoptr i64 %7 to ptr
  %9 = getelementptr inbounds nuw %struct.RArray, ptr %8, i32 0, i32 1
  %10 = getelementptr inbounds [1 x i64], ptr %9, i64 0, i64 0
  store ptr %10, ptr %2, align 8
  br label %17

11:                                               ; preds = %1
  %12 = load i64, ptr %3, align 8, !tbaa !7
  %13 = inttoptr i64 %12 to ptr
  %14 = getelementptr inbounds nuw %struct.RArray, ptr %13, i32 0, i32 1
  %15 = getelementptr inbounds nuw %struct.anon.17, ptr %14, i32 0, i32 2
  %16 = load ptr, ptr %15, align 8, !tbaa !22
  store ptr %16, ptr %2, align 8
  br label %17

17:                                               ; preds = %11, %6
  %18 = load ptr, ptr %2, align 8
  ret ptr %18
}

; Function Attrs: inlinehint nounwind sspstrong willreturn memory(read) uwtable
define internal i64 @RARRAY_EMBED_LEN(i64 noundef %0) #4 {
  %2 = alloca i64, align 8
  %3 = alloca i64, align 8
  store i64 %0, ptr %2, align 8, !tbaa !7
  call void @llvm.lifetime.start.p0(i64 8, ptr %3) #28
  %4 = load i64, ptr %2, align 8, !tbaa !7
  %5 = inttoptr i64 %4 to ptr
  %6 = getelementptr inbounds nuw %struct.RBasic, ptr %5, i32 0, i32 0
  %7 = load i64, ptr %6, align 8, !tbaa !64
  store i64 %7, ptr %3, align 8, !tbaa !7
  %8 = load i64, ptr %3, align 8, !tbaa !7
  %9 = and i64 %8, 4161536
  store i64 %9, ptr %3, align 8, !tbaa !7
  %10 = load i64, ptr %3, align 8, !tbaa !7
  %11 = lshr i64 %10, 15
  store i64 %11, ptr %3, align 8, !tbaa !7
  %12 = load i64, ptr %3, align 8, !tbaa !7
  call void @llvm.lifetime.end.p0(i64 8, ptr %3) #28
  ret i64 %12
}

; Function Attrs: inlinehint nounwind sspstrong willreturn memory(read) uwtable
define internal zeroext i1 @RB_FL_ANY_RAW(i64 noundef %0, i64 noundef %1) #4 {
  %3 = alloca i64, align 8
  %4 = alloca i64, align 8
  store i64 %0, ptr %3, align 8, !tbaa !7
  store i64 %1, ptr %4, align 8, !tbaa !7
  %5 = load i64, ptr %3, align 8, !tbaa !7
  %6 = load i64, ptr %4, align 8, !tbaa !7
  %7 = call i64 @RB_FL_TEST_RAW(i64 noundef %5, i64 noundef %6) #26
  %8 = icmp ne i64 %7, 0
  ret i1 %8
}

; Function Attrs: nounwind sspstrong uwtable
define dso_local void @ruby_setenv(ptr noundef nonnull %0, ptr noundef %1) #0 {
  %3 = alloca ptr, align 8
  %4 = alloca ptr, align 8
  %5 = alloca i32, align 4
  %6 = alloca i32, align 4
  %7 = alloca i32, align 4
  %8 = alloca i32, align 4
  %9 = alloca i32, align 4
  %10 = alloca i32, align 4
  store ptr %0, ptr %3, align 8, !tbaa !14
  store ptr %1, ptr %4, align 8, !tbaa !14
  %11 = load ptr, ptr %4, align 8, !tbaa !14
  %12 = icmp ne ptr %11, null
  br i1 %12, label %13, label %29

13:                                               ; preds = %2
  call void @llvm.lifetime.start.p0(i64 4, ptr %5) #28
  call void @llvm.lifetime.start.p0(i64 4, ptr %6) #28
  call void @rb_vm_lock_enter(ptr noundef %6, ptr noundef @.str, i32 noundef 5257)
  %14 = load ptr, ptr %3, align 8, !tbaa !14
  %15 = load ptr, ptr %4, align 8, !tbaa !14
  %16 = call i32 @setenv(ptr noundef %14, ptr noundef %15, i32 noundef 1) #28
  store i32 %16, ptr %5, align 4, !tbaa !16
  call void @rb_vm_lock_leave(ptr noundef %6, ptr noundef @.str, i32 noundef 5261)
  call void @llvm.lifetime.end.p0(i64 4, ptr %6) #28
  %17 = load i32, ptr %5, align 4, !tbaa !16
  %18 = icmp ne i32 %17, 0
  br i1 %18, label %19, label %28

19:                                               ; preds = %13
  br label %20

20:                                               ; preds = %19
  call void @llvm.lifetime.start.p0(i64 4, ptr %7) #28
  %21 = call ptr @rb_errno_ptr()
  %22 = load i32, ptr %21, align 4, !tbaa !16
  store i32 %22, ptr %7, align 4, !tbaa !16
  %23 = load i32, ptr %7, align 4, !tbaa !16
  %24 = load ptr, ptr %3, align 8, !tbaa !14
  %25 = call i64 (ptr, ...) @rb_sprintf(ptr noundef @.str.9, ptr noundef %24)
  call void @rb_syserr_fail_str(i32 noundef %23, i64 noundef %25) #30
  unreachable

26:                                               ; No predecessors!
  br label %27

27:                                               ; preds = %26
  br label %28

28:                                               ; preds = %27, %13
  call void @llvm.lifetime.end.p0(i64 4, ptr %5) #28
  br label %44

29:                                               ; preds = %2
  call void @llvm.lifetime.start.p0(i64 4, ptr %8) #28
  call void @llvm.lifetime.start.p0(i64 4, ptr %9) #28
  call void @rb_vm_lock_enter(ptr noundef %9, ptr noundef @.str, i32 noundef 5274)
  %30 = load ptr, ptr %3, align 8, !tbaa !14
  %31 = call i32 @unsetenv(ptr noundef %30) #28
  store i32 %31, ptr %8, align 4, !tbaa !16
  call void @rb_vm_lock_leave(ptr noundef %9, ptr noundef @.str, i32 noundef 5278)
  call void @llvm.lifetime.end.p0(i64 4, ptr %9) #28
  %32 = load i32, ptr %8, align 4, !tbaa !16
  %33 = icmp ne i32 %32, 0
  br i1 %33, label %34, label %43

34:                                               ; preds = %29
  br label %35

35:                                               ; preds = %34
  call void @llvm.lifetime.start.p0(i64 4, ptr %10) #28
  %36 = call ptr @rb_errno_ptr()
  %37 = load i32, ptr %36, align 4, !tbaa !16
  store i32 %37, ptr %10, align 4, !tbaa !16
  %38 = load i32, ptr %10, align 4, !tbaa !16
  %39 = load ptr, ptr %3, align 8, !tbaa !14
  %40 = call i64 (ptr, ...) @rb_sprintf(ptr noundef @.str.10, ptr noundef %39)
  call void @rb_syserr_fail_str(i32 noundef %38, i64 noundef %40) #30
  unreachable

41:                                               ; No predecessors!
  br label %42

42:                                               ; preds = %41
  br label %43

43:                                               ; preds = %42, %29
  call void @llvm.lifetime.end.p0(i64 4, ptr %8) #28
  br label %44

44:                                               ; preds = %43, %28
  ret void
}

; Function Attrs: inlinehint nounwind sspstrong uwtable
define internal ptr @RSTRING_PTR(i64 noundef %0) #2 {
  %2 = alloca i64, align 8
  %3 = alloca ptr, align 8
  %4 = alloca %struct.RString, align 8
  store i64 %0, ptr %2, align 8, !tbaa !7
  call void @llvm.lifetime.start.p0(i64 8, ptr %3) #28
  %5 = load i64, ptr %2, align 8, !tbaa !7
  call void @rbimpl_rstring_getmem(ptr dead_on_unwind writable sret(%struct.RString) align 8 %4, i64 noundef %5) #32
  %6 = getelementptr inbounds nuw %struct.RString, ptr %4, i32 0, i32 2
  %7 = getelementptr inbounds nuw %struct.anon.20, ptr %6, i32 0, i32 0
  %8 = load ptr, ptr %7, align 8, !tbaa !22
  store ptr %8, ptr %3, align 8, !tbaa !14
  %9 = load ptr, ptr %3, align 8, !tbaa !14
  call void @llvm.lifetime.end.p0(i64 8, ptr %3) #28
  ret ptr %9
}

; Function Attrs: inlinehint nounwind sspstrong willreturn memory(read) uwtable
define internal i64 @RARRAY_AREF(i64 noundef %0, i64 noundef %1) #4 {
  %3 = alloca i64, align 8
  %4 = alloca i64, align 8
  %5 = alloca i64, align 8
  store i64 %0, ptr %3, align 8, !tbaa !7
  store i64 %1, ptr %4, align 8, !tbaa !7
  call void @llvm.lifetime.start.p0(i64 8, ptr %5) #28
  %6 = load i64, ptr %3, align 8, !tbaa !7
  %7 = call ptr @rb_array_const_ptr(i64 noundef %6) #26
  %8 = load i64, ptr %4, align 8, !tbaa !7
  %9 = getelementptr i64, ptr %7, i64 %8
  %10 = load i64, ptr %9, align 8, !tbaa !7
  store i64 %10, ptr %5, align 8, !tbaa !7
  %11 = load i64, ptr %5, align 8, !tbaa !7
  call void @llvm.lifetime.end.p0(i64 8, ptr %5) #28
  ret i64 %11
}

; Function Attrs: inlinehint nounwind sspstrong willreturn memory(read) uwtable
define internal i64 @rb_array_len(i64 noundef %0) #4 {
  %2 = alloca i64, align 8
  %3 = alloca i64, align 8
  store i64 %0, ptr %3, align 8, !tbaa !7
  %4 = load i64, ptr %3, align 8, !tbaa !7
  %5 = call zeroext i1 @RB_FL_ANY_RAW(i64 noundef %4, i64 noundef 8192) #26
  br i1 %5, label %6, label %9

6:                                                ; preds = %1
  %7 = load i64, ptr %3, align 8, !tbaa !7
  %8 = call i64 @RARRAY_EMBED_LEN(i64 noundef %7) #26
  store i64 %8, ptr %2, align 8
  br label %15

9:                                                ; preds = %1
  %10 = load i64, ptr %3, align 8, !tbaa !7
  %11 = inttoptr i64 %10 to ptr
  %12 = getelementptr inbounds nuw %struct.RArray, ptr %11, i32 0, i32 1
  %13 = getelementptr inbounds nuw %struct.anon.17, ptr %12, i32 0, i32 0
  %14 = load i64, ptr %13, align 8, !tbaa !22
  store i64 %14, ptr %2, align 8
  br label %15

15:                                               ; preds = %9, %6
  %16 = load i64, ptr %2, align 8
  ret i64 %16
}

; Function Attrs: nounwind sspstrong uwtable
define dso_local i64 @rb_env_clear() #0 {
  %1 = alloca i64, align 8
  %2 = alloca i64, align 8
  %3 = alloca i64, align 8
  %4 = alloca ptr, align 8
  %5 = alloca ptr, align 8
  %6 = alloca ptr, align 8
  call void @llvm.lifetime.start.p0(i64 8, ptr %1) #28
  call void @llvm.lifetime.start.p0(i64 8, ptr %2) #28
  %7 = call i64 @env_keys(i32 noundef 1)
  store i64 %7, ptr %1, align 8, !tbaa !7
  store i64 0, ptr %2, align 8, !tbaa !7
  br label %8

8:                                                ; preds = %20, %0
  %9 = load i64, ptr %2, align 8, !tbaa !7
  %10 = load i64, ptr %1, align 8, !tbaa !7
  %11 = call i64 @rb_array_len(i64 noundef %10) #26
  %12 = icmp slt i64 %9, %11
  br i1 %12, label %13, label %23

13:                                               ; preds = %8
  call void @llvm.lifetime.start.p0(i64 8, ptr %3) #28
  %14 = load i64, ptr %1, align 8, !tbaa !7
  %15 = load i64, ptr %2, align 8, !tbaa !7
  %16 = call i64 @RARRAY_AREF(i64 noundef %14, i64 noundef %15) #26
  store i64 %16, ptr %3, align 8, !tbaa !7
  call void @llvm.lifetime.start.p0(i64 8, ptr %4) #28
  %17 = load i64, ptr %3, align 8, !tbaa !7
  %18 = call ptr @RSTRING_PTR(i64 noundef %17)
  store ptr %18, ptr %4, align 8, !tbaa !14
  %19 = load ptr, ptr %4, align 8, !tbaa !14
  call void @ruby_setenv(ptr noundef %19, ptr noundef null)
  call void @llvm.lifetime.end.p0(i64 8, ptr %4) #28
  call void @llvm.lifetime.end.p0(i64 8, ptr %3) #28
  br label %20

20:                                               ; preds = %13
  %21 = load i64, ptr %2, align 8, !tbaa !7
  %22 = add i64 %21, 1
  store i64 %22, ptr %2, align 8, !tbaa !7
  br label %8, !llvm.loop !97

23:                                               ; preds = %8
  call void @llvm.lifetime.start.p0(i64 8, ptr %5) #28
  store ptr %1, ptr %5, align 8, !tbaa !11
  call void asm sideeffect "", "*m,~{dirflag},~{fpsr},~{flags}"(ptr elementtype(ptr) %5) #28, !srcloc !98
  %24 = load ptr, ptr %5, align 8, !tbaa !11
  store ptr %24, ptr %6, align 8, !tbaa !11
  call void @llvm.lifetime.end.p0(i64 8, ptr %5) #28
  %25 = load ptr, ptr %6, align 8, !tbaa !11
  %26 = load volatile i64, ptr %25, align 8, !tbaa !7
  %27 = load i64, ptr @envtbl, align 8, !tbaa !7
  call void @llvm.lifetime.end.p0(i64 8, ptr %2) #28
  call void @llvm.lifetime.end.p0(i64 8, ptr %1) #28
  ret i64 %27
}