; Function Attrs: nounwind sspstrong uwtable
define dso_local i64 @rb_env_clear() local_unnamed_addr #0 {
  %1 = alloca i32, align 4
  %2 = alloca i64, align 8
  %3 = alloca ptr, align 8
  call void @llvm.lifetime.start.p0(i64 8, ptr nonnull %2) #28
  %4 = tail call fastcc i64 @env_keys(i32 noundef 1)
  store i64 %4, ptr %2, align 8, !tbaa !7
  %5 = inttoptr i64 %4 to ptr
  %6 = getelementptr inbounds nuw i8, ptr %5, i64 16
  %7 = getelementptr inbounds nuw i8, ptr %5, i64 16
  %8 = getelementptr inbounds nuw i8, ptr %5, i64 32
  br label %9

9:                                                ; preds = %rb_vm_lock_leave.exit15.i, %0
  %.0 = phi i64 [ 0, %0 ], [ %31, %rb_vm_lock_leave.exit15.i ]
  %10 = load i64, ptr %5, align 8, !tbaa !11
  %11 = and i64 %10, 8192
  %.not.i = icmp eq i64 %11, 0
  br i1 %.not.i, label %rb_array_len.exit, label %rb_array_len.exit.thread

rb_array_len.exit:                                ; preds = %9
  %12 = load i64, ptr %7, align 8, !tbaa !22
  %13 = icmp slt i64 %.0, %12
  br i1 %13, label %17, label %36

rb_array_len.exit.thread:                         ; preds = %9
  %14 = lshr i64 %10, 15
  %15 = and i64 %14, 127
  %16 = icmp samesign ult i64 %.0, %15
  br i1 %16, label %RARRAY_AREF.exit, label %36

17:                                               ; preds = %rb_array_len.exit
  %18 = load ptr, ptr %8, align 8, !tbaa !22
  br label %RARRAY_AREF.exit

RARRAY_AREF.exit:                                 ; preds = %rb_array_len.exit.thread, %17
  %.0.i.i = phi ptr [ %18, %17 ], [ %6, %rb_array_len.exit.thread ]
  %19 = getelementptr i64, ptr %.0.i.i, i64 %.0
  %20 = load i64, ptr %19, align 8, !tbaa !7
  %21 = inttoptr i64 %20 to ptr
  %22 = load i64, ptr %21, align 8, !tbaa !11, !noalias !84
  %23 = and i64 %22, 8192
  %.not.i.i5 = icmp eq i64 %23, 0
  %24 = getelementptr inbounds nuw i8, ptr %21, i64 24
  br i1 %.not.i.i5, label %RSTRING_PTR.exit, label %25

25:                                               ; preds = %RARRAY_AREF.exit
  %.sroa.2.0.copyload.i = load ptr, ptr %24, align 8
  br label %RSTRING_PTR.exit

RSTRING_PTR.exit:                                 ; preds = %RARRAY_AREF.exit, %25
  %.sroa.2.0.i = phi ptr [ %.sroa.2.0.copyload.i, %25 ], [ %24, %RARRAY_AREF.exit ]
  call void @llvm.lifetime.start.p0(i64 4, ptr nonnull %1) #28
  %26 = load ptr, ptr @ruby_single_main_ractor, align 8, !tbaa !82
  %.not.i.i12.i = icmp eq ptr %26, null
  br i1 %.not.i.i12.i, label %27, label %rb_vm_lock_enter.exit13.i

27:                                               ; preds = %RSTRING_PTR.exit
  call void @rb_vm_lock_enter_body(ptr noundef nonnull %1) #28
  br label %rb_vm_lock_enter.exit13.i

rb_vm_lock_enter.exit13.i:                        ; preds = %27, %RSTRING_PTR.exit
  %28 = call i32 @unsetenv(ptr noundef nonnull %.sroa.2.0.i) #28
  %29 = load ptr, ptr @ruby_single_main_ractor, align 8, !tbaa !82
  %.not.i.i14.i = icmp eq ptr %29, null
  br i1 %.not.i.i14.i, label %30, label %rb_vm_lock_leave.exit15.i

30:                                               ; preds = %rb_vm_lock_enter.exit13.i
  call void @rb_vm_lock_leave_body(ptr noundef nonnull %1) #28
  br label %rb_vm_lock_leave.exit15.i

rb_vm_lock_leave.exit15.i:                        ; preds = %30, %rb_vm_lock_enter.exit13.i
  call void @llvm.lifetime.end.p0(i64 4, ptr nonnull %1) #28
  %.not9.i = icmp eq i32 %28, 0
  %31 = add nuw nsw i64 %.0, 1
  br i1 %.not9.i, label %9, label %32, !llvm.loop !87

32:                                               ; preds = %rb_vm_lock_leave.exit15.i
  %33 = call ptr @rb_errno_ptr() #28
  %34 = load i32, ptr %33, align 4, !tbaa !29
  %35 = call i64 (ptr, ...) @rb_sprintf(ptr noundef nonnull @.str.10, ptr noundef nonnull %.sroa.2.0.i) #28
  call void @rb_syserr_fail_str(i32 noundef %34, i64 noundef %35) #30
  unreachable

36:                                               ; preds = %rb_array_len.exit.thread, %rb_array_len.exit
  call void @llvm.lifetime.start.p0(i64 8, ptr nonnull %3) #28
  store ptr %2, ptr %3, align 8, !tbaa !33
  call void asm sideeffect "", "*m,~{dirflag},~{fpsr},~{flags}"(ptr nonnull elementtype(ptr) %3) #28, !srcloc !88
  %37 = load ptr, ptr %3, align 8, !tbaa !33
  call void @llvm.lifetime.end.p0(i64 8, ptr nonnull %3) #28
  %38 = load volatile i64, ptr %37, align 8, !tbaa !7
  %39 = load i64, ptr @envtbl, align 8, !tbaa !7
  call void @llvm.lifetime.end.p0(i64 8, ptr nonnull %2) #28
  ret i64 %39
}